Certificate:
    Data:
        Version: 3 (0x2)
        Serial Number: 3 (0x3)
        Signature Algorithm: ecdsa-with-SHA256
        Issuer: 
        Validity
            Not Before: Dec 11 00:00:00 2018 GMT
            Not After : Dec 15 00:00:00 2018 GMT
        Subject: 
        Subject Public Key Info:
            Public Key Algorithm: id-ecPublicKey
                Public-Key: (256 bit)
                pub:
                    04:35:93:e2:99:40:dd:bb:df:9f:c0:ad:0c:72:0e:
                    73:70:a5:d5:83:bb:1a:ab:c2:e5:e6:b4:9f:7b:3f:
                    ac:52:f8:1e:40:fe:5d:c3:1f:58:11:72:6e:50:2d:
                    a1:8d:bf:c3:93:0c:34:51:fb:8b:a6:08:9a:7b:e9:
                    77:6d:3d:1e:08
                ASN1 OID: prime256v1
                NIST CURVE: P-256
        X509v3 extensions:
            X509v3 Subject Alternative Name: 
                DNS:no.under_score.com
    Signature Algorithm: ecdsa-with-SHA256
         30:45:02:21:00:fa:c0:34:8f:0a:1e:9f:e3:28:78:cc:75:ab:
         a0:f6:6b:42:53:75:bb:9c:42:0e:d4:d9:b9:6f:0f:73:98:9f:
         21:02:20:69:94:5e:ab:18:dd:5c:3a:10:81:bf:d4:a3:7c:d7:
         4d:5f:b5:e6:df:6e:9f:13:5c:4d:9d:bc:28:21:e4:aa:46
-----BEGIN CERTIFICATE-----
MIIBDzCBtqADAgECAgEDMAoGCCqGSM49BAMCMAAwHhcNMTgxMjExMDAwMDAwWhcN
MTgxMjE1MDAwMDAwWjAAMFkwEwYHKoZIzj0CAQYIKoZIzj0DAQcDQgAENZPimUDd
u9+fwK0Mcg5zcKXVg7saq8Ll5rSfez+sUvgeQP5dwx9YEXJuUC2hjb/Dkww0UfuL
pgiae+l3bT0eCKMhMB8wHQYDVR0RBBYwFIISbm8udW5kZXJfc2NvcmUuY29tMAoG
CCqGSM49BAMCA0gAMEUCIQD6wDSPCh6f4yh4zHWroPZrQlN1u5xCDtTZuW8Pc5if
IQIgaZReqxjdXDoQgb/Uo3zXTV+15t9unxNcTZ28KCHkqkY=
-----END CERTIFICATE-----
