Certificate:
    Data:
        Version: 3 (0x2)
        Serial Number: 3 (0x3)
        Signature Algorithm: ecdsa-with-SHA256
        Issuer: 
        Validity
            Not Before: Dec 11 00:00:00 2018 GMT
            Not After : Dec 15 00:00:00 2018 GMT
        Subject: 
        Subject Public Key Info:
            Public Key Algorithm: id-ecPublicKey
                Public-Key: (256 bit)
                pub:
                    04:ea:81:84:ff:f7:1b:78:78:f3:21:90:0e:13:37:
                    e7:a5:2c:d0:bf:49:a8:f4:9b:0c:ce:bd:f4:55:bc:
                    46:d7:50:bb:3f:c5:17:fe:2d:f4:a8:49:bb:63:1d:
                    fc:a7:2d:97:15:a8:3a:ed:88:0b:2b:9c:47:c5:8b:
                    4f:f9:94:4e:53
                ASN1 OID: prime256v1
                NIST CURVE: P-256
        X509v3 extensions:
            X509v3 Subject Alternative Name: 
                DNS:no._underscore.com
    Signature Algorithm: ecdsa-with-SHA256
         30:45:02:20:5c:b8:f3:e6:47:8f:eb:f2:a8:a8:ed:b0:ca:8f:
         30:ec:7b:5c:a1:19:60:76:6c:38:ea:62:cd:33:d6:1a:eb:d4:
         02:21:00:8f:3e:5a:05:ef:b0:60:35:f9:af:9b:c2:52:97:29:
         00:26:1b:98:e0:30:d7:ed:84:1b:80:3a:a8:e3:02:b2:d3
-----BEGIN CERTIFICATE-----
MIIBDzCBtqADAgECAgEDMAoGCCqGSM49BAMCMAAwHhcNMTgxMjExMDAwMDAwWhcN
MTgxMjE1MDAwMDAwWjAAMFkwEwYHKoZIzj0CAQYIKoZIzj0DAQcDQgAE6oGE//cb
eHjzIZAOEzfnpSzQv0mo9JsMzr30VbxG11C7P8UX/i30qEm7Yx38py2XFag67YgL
K5xHxYtP+ZROU6MhMB8wHQYDVR0RBBYwFIISbm8uX3VuZGVyc2NvcmUuY29tMAoG
CCqGSM49BAMCA0gAMEUCIFy48+ZHj+vyqKjtsMqPMOx7XKEZYHZsOOpizTPWGuvU
AiEAjz5aBe+wYDX5r5vCUpcpACYbmOAw1+2EG4A6qOMCstM=
-----END CERTIFICATE-----
